; Function Attrs: mustprogress nounwind uwtable
define noundef i32 @_Z27tMPI_Thread_barrier_destroyP21tMPI_Thread_barrier_t(ptr noundef readonly %0) local_unnamed_addr #1 {
  %2 = icmp eq ptr %0, null
  br i1 %2, label %14, label %3

3:                                                ; preds = %1
  %4 = getelementptr inbounds i8, ptr %0, i64 64
  %5 = load ptr, ptr %4, align 8
  %6 = getelementptr inbounds i8, ptr %5, i64 64
  %7 = tail call i32 @pthread_mutex_destroy(ptr noundef nonnull %6) #13
  %.not = icmp eq i32 %7, 0
  br i1 %.not, label %8, label %14

8:                                                ; preds = %3
  %9 = load ptr, ptr %4, align 8
  %10 = getelementptr inbounds i8, ptr %9, i64 104
  %11 = tail call i32 @pthread_cond_destroy(ptr noundef nonnull %10) #13
  %.not11 = icmp eq i32 %11, 0
  br i1 %.not11, label %12, label %14

12:                                               ; preds = %8
  %13 = load ptr, ptr %4, align 8
  tail call void @free(ptr noundef %13) #13
  br label %14

14:                                               ; preds = %8, %3, %1, %12
  %.0 = phi i32 [ 0, %12 ], [ 22, %1 ], [ %7, %3 ], [ %11, %8 ]
  ret i32 %.0
}